; Function Attrs: mustprogress nounwind uwtable
define dso_local noundef ptr @_ZNK4llvm28TargetLoweringObjectFileWasm20getStaticCtorSectionEjPKNS_8MCSymbolE(ptr nocapture noundef nonnull readonly align 8 dereferenceable(1024) %0, i32 noundef %1, ptr nocapture readnone %2) unnamed_addr #0 align 2 {
  %4 = alloca %"class.llvm::Twine", align 8
  %5 = alloca [21 x i8], align 16
  %6 = alloca %"class.std::allocator", align 1
  %7 = alloca %"class.llvm::Twine", align 8
  %8 = alloca %"class.std::__cxx11::basic_string", align 8
  %9 = alloca %"class.std::__cxx11::basic_string", align 8
  %.not = icmp eq i32 %1, 65535
  br i1 %.not, label %.thread, label %12

.thread:                                          ; preds = %3
  %10 = getelementptr inbounds nuw i8, ptr %0, i64 944
  %11 = load ptr, ptr %10, align 8
  br label %.critedge

12:                                               ; preds = %3
  %13 = getelementptr inbounds nuw i8, ptr %0, i64 904
  %14 = load ptr, ptr %13, align 8
  tail call void @llvm.experimental.noalias.scope.decl(metadata !174)
  call void @llvm.lifetime.start.p0(i64 21, ptr nonnull %5)
  call void @llvm.lifetime.start.p0(i64 1, ptr nonnull %6)
  %15 = getelementptr inbounds i8, ptr %5, i64 21
  %16 = icmp eq i32 %1, 0
  br i1 %16, label %.thread.i, label %.lr.ph.i.preheader

.lr.ph.i.preheader:                               ; preds = %12
  %17 = zext i32 %1 to i64
  br label %.lr.ph.i

.thread.i:                                        ; preds = %12
  %18 = getelementptr inbounds i8, ptr %5, i64 20
  store i8 48, ptr %18, align 4, !noalias !174
  br label %.loopexit

.lr.ph.i:                                         ; preds = %.lr.ph.i.preheader, %.lr.ph.i
  %.111.i = phi ptr [ %22, %.lr.ph.i ], [ %15, %.lr.ph.i.preheader ]
  %.0810.i = phi i64 [ %23, %.lr.ph.i ], [ %17, %.lr.ph.i.preheader ]
  %19 = urem i64 %.0810.i, 10
  %20 = trunc nuw nsw i64 %19 to i8
  %21 = or disjoint i8 %20, 48
  %22 = getelementptr inbounds i8, ptr %.111.i, i64 -1
  store i8 %21, ptr %22, align 1, !noalias !174
  %23 = udiv i64 %.0810.i, 10
  %.not.i = icmp ult i64 %.0810.i, 10
  br i1 %.not.i, label %.loopexit, label %.lr.ph.i, !llvm.loop !106

.loopexit:                                        ; preds = %.lr.ph.i, %.thread.i
  %.1.lcssa.i = phi ptr [ %18, %.thread.i ], [ %22, %.lr.ph.i ]
  call void @_ZNSaIcEC1Ev(ptr noundef nonnull align 1 dereferenceable(1) %6) #24, !noalias !174
  %24 = call noundef ptr @_ZNSt7__cxx1112basic_stringIcSt11char_traitsIcESaIcEE13_M_local_dataEv(ptr noundef nonnull align 8 dereferenceable(32) %9) #24
  call void @_ZNSt7__cxx1112basic_stringIcSt11char_traitsIcESaIcEE12_Alloc_hiderC1EPcRKS3_(ptr noundef nonnull align 8 dereferenceable(8) %9, ptr noundef %24, ptr noundef nonnull align 1 dereferenceable(1) %6) #24
  %25 = getelementptr inbounds nuw i8, ptr %9, i64 8
  store i64 0, ptr %25, align 8, !alias.scope !174
  call void @_ZNSt7__cxx1112basic_stringIcSt11char_traitsIcESaIcEE12_M_constructIPcEEvT_S7_St20forward_iterator_tag(ptr noundef nonnull align 8 dereferenceable(32) %9, ptr noundef nonnull %.1.lcssa.i, ptr noundef nonnull %15)
  call void @_ZNSaIcED1Ev(ptr noundef nonnull align 1 dereferenceable(1) %6) #24
  call void @llvm.lifetime.end.p0(i64 21, ptr nonnull %5)
  call void @llvm.lifetime.end.p0(i64 1, ptr nonnull %6)
  %26 = call noundef nonnull align 8 dereferenceable(32) ptr @_ZNSt7__cxx1112basic_stringIcSt11char_traitsIcESaIcEE6insertEmPKc(ptr noundef nonnull align 8 dereferenceable(32) %9, i64 noundef 0, ptr noundef nonnull @.str.54) #24, !noalias !177
  call void @_ZNSt7__cxx1112basic_stringIcSt11char_traitsIcESaIcEEC1EOS4_(ptr noundef nonnull align 8 dereferenceable(32) %8, ptr noundef nonnull align 8 dereferenceable(32) %26) #24
  %27 = getelementptr inbounds nuw i8, ptr %7, i64 32
  store i8 4, ptr %27, align 8
  %28 = getelementptr inbounds nuw i8, ptr %7, i64 33
  store i8 1, ptr %28, align 1
  store ptr %8, ptr %7, align 8
  call void @llvm.lifetime.start.p0(i64 40, ptr nonnull %4)
  %29 = getelementptr inbounds nuw i8, ptr %4, i64 32
  store i16 257, ptr %29, align 8
  %30 = call noundef ptr @_ZN4llvm9MCContext14getWasmSectionERKNS_5TwineENS_11SectionKindEjS3_j(ptr noundef nonnull align 8 dereferenceable(2432) %14, ptr noundef nonnull align 8 dereferenceable(34) %7, i32 19, i32 noundef 0, ptr noundef nonnull align 8 dereferenceable(34) %4, i32 noundef -1) #24
  call void @llvm.lifetime.end.p0(i64 40, ptr nonnull %4)
  call void @_ZNSt7__cxx1112basic_stringIcSt11char_traitsIcESaIcEED1Ev(ptr noundef nonnull align 8 dereferenceable(32) %8) #24
  call void @_ZNSt7__cxx1112basic_stringIcSt11char_traitsIcESaIcEED1Ev(ptr noundef nonnull align 8 dereferenceable(32) %9) #24
  br label %.critedge

.critedge:                                        ; preds = %.thread, %.loopexit
  %31 = phi ptr [ %11, %.thread ], [ %30, %.loopexit ]
  ret ptr %31
}